target datalayout = "e-m:e-p270:32:32-p271:32:32-p272:64:64-i64:64-i128:128-f80:128-n8:16:32:64-S128"
target triple = "x86_64-pc-linux-gnu"

%struct.sat_solver3_t = type { i32, i32, i32, i32, %struct.Sat_Mem_t_, i32, i32, ptr, ptr, i32, i32, i32, i32, i32, i64, i64, i64, ptr, ptr, i32, i32, %struct.veci_t, ptr, i32, ptr, ptr, ptr, ptr, ptr, ptr, ptr, ptr, %struct.veci_t, %struct.veci_t, %struct.veci_t, %struct.veci_t, ptr, %struct.veci_t, i32, i32, i32, double, double, i32, i32, %struct.stats_t, i32, i32, i32, i32, i32, i64, i64, i64, %struct.veci_t, ptr, i32, i32, i32, %struct.veci_t, %struct.veci_t, i32, i32, i32, ptr, ptr, i32, ptr, i32, i32, %struct.veci_t, ptr, ptr }
%struct.Sat_Mem_t_ = type { [2 x i32], [2 x i32], [2 x i32], [2 x i32], i32, i32, i32, i32, ptr }
%struct.stats_t = type { i32, i32, i32, i64, i64, i64, i64, i64, i64, i64 }
%struct.veci_t = type { i32, i32, ptr }

; Function Attrs: inlinehint nounwind uwtable
define internal i32 @var_value(ptr noundef %0, i32 noundef %1) #1 {
  %3 = alloca ptr, align 8
  %4 = alloca i32, align 4
  store ptr %0, ptr %3, align 8, !tbaa !3
  store i32 %1, ptr %4, align 4, !tbaa !8
  %5 = load ptr, ptr %3, align 8, !tbaa !3
  %6 = getelementptr inbounds nuw %struct.sat_solver3_t, ptr %5, i32 0, i32 25
  %7 = load ptr, ptr %6, align 8, !tbaa !10
  %8 = load i32, ptr %4, align 4, !tbaa !8
  %9 = sext i32 %8 to i64
  %10 = getelementptr inbounds i8, ptr %7, i64 %9
  %11 = load i8, ptr %10, align 1, !tbaa !25
  %12 = sext i8 %11 to i32
  ret i32 %12
}

; Function Attrs: nounwind uwtable
define i32 @sat_solver3_count_assigned(ptr noundef %0) #0 {
  %2 = alloca ptr, align 8
  %3 = alloca i32, align 4
  %4 = alloca i32, align 4
  store ptr %0, ptr %2, align 8, !tbaa !3
  call void @llvm.lifetime.start.p0(i64 4, ptr %3) #13
  call void @llvm.lifetime.start.p0(i64 4, ptr %4) #13
  store i32 0, ptr %4, align 4, !tbaa !8
  store i32 0, ptr %3, align 4, !tbaa !8
  br label %5

5:                                                ; preds = %20, %1
  %6 = load i32, ptr %3, align 4, !tbaa !8
  %7 = load ptr, ptr %2, align 8, !tbaa !3
  %8 = getelementptr inbounds nuw %struct.sat_solver3_t, ptr %7, i32 0, i32 0
  %9 = load i32, ptr %8, align 8, !tbaa !27
  %10 = icmp slt i32 %6, %9
  br i1 %10, label %11, label %23

11:                                               ; preds = %5
  %12 = load ptr, ptr %2, align 8, !tbaa !3
  %13 = load i32, ptr %3, align 4, !tbaa !8
  %14 = call i32 @var_value(ptr noundef %12, i32 noundef %13)
  %15 = icmp ne i32 %14, 3
  br i1 %15, label %16, label %19

16:                                               ; preds = %11
  %17 = load i32, ptr %4, align 4, !tbaa !8
  %18 = add nsw i32 %17, 1
  store i32 %18, ptr %4, align 4, !tbaa !8
  br label %19

19:                                               ; preds = %16, %11
  br label %20

20:                                               ; preds = %19
  %21 = load i32, ptr %3, align 4, !tbaa !8
  %22 = add nsw i32 %21, 1
  store i32 %22, ptr %3, align 4, !tbaa !8
  br label %5, !llvm.loop !57

23:                                               ; preds = %5
  %24 = load i32, ptr %4, align 4, !tbaa !8
  call void @llvm.lifetime.end.p0(i64 4, ptr %4) #13
  call void @llvm.lifetime.end.p0(i64 4, ptr %3) #13
  ret i32 %24
}