; Function Attrs: nofree norecurse nosync nounwind memory(read, inaccessiblemem: none) uwtable
define i32 @sat_solver3_count_assigned(ptr noundef readonly captures(none) %0) local_unnamed_addr #5 {
  %2 = load i32, ptr %0, align 8, !tbaa !23
  %3 = icmp sgt i32 %2, 0
  br i1 %3, label %.lr.ph, label %._crit_edge

.lr.ph:                                           ; preds = %1
  %4 = getelementptr i8, ptr %0, i64 208
  %.val = load ptr, ptr %4, align 8, !tbaa !3
  %wide.trip.count = zext nneg i32 %2 to i64
  br label %5

5:                                                ; preds = %.lr.ph, %5
  %indvars.iv = phi i64 [ 0, %.lr.ph ], [ %indvars.iv.next, %5 ]
  %.08 = phi i32 [ 0, %.lr.ph ], [ %spec.select, %5 ]
  %6 = getelementptr inbounds nuw i8, ptr %.val, i64 %indvars.iv
  %7 = load i8, ptr %6, align 1, !tbaa !22
  %.not = icmp ne i8 %7, 3
  %8 = zext i1 %.not to i32
  %spec.select = add nuw nsw i32 %.08, %8
  %indvars.iv.next = add nuw nsw i64 %indvars.iv, 1
  %exitcond.not = icmp eq i64 %indvars.iv.next, %wide.trip.count
  br i1 %exitcond.not, label %._crit_edge, label %5, !llvm.loop !50

._crit_edge:                                      ; preds = %5, %1
  %.0.lcssa = phi i32 [ 0, %1 ], [ %spec.select, %5 ]
  ret i32 %.0.lcssa
}